; Function Attrs: mustprogress uwtable
define noundef range(i32 0, 25) i32 @_Z12tMPI_WaitanyiPP9tmpi_req_PiP12tmpi_status_(i32 noundef %0, ptr noundef captures(none) %1, ptr noundef writeonly %2, ptr noundef %3) local_unnamed_addr #0 {
  %5 = tail call noundef ptr @_Z23tMPI_Thread_getspecific17tMPI_Thread_key_t(ptr noundef nonnull byval(%struct.tMPI_Thread_key_t) align 8 @id_key)
  %6 = getelementptr inbounds nuw i8, ptr %5, i64 360
  %7 = icmp sgt i32 %0, 0
  br i1 %7, label %.lr.ph.preheader.i, label %.preheader.i

.lr.ph.preheader.i:                               ; preds = %4
  %wide.trip.count.i = zext nneg i32 %0 to i64
  br label %.lr.ph.i

.preheader.i:                                     ; preds = %18, %4
  %.024.lcssa.i = phi ptr [ null, %4 ], [ %.125.i, %18 ]
  %8 = tail call noundef i32 @_Z15tMPI_Test_multiP11tmpi_threadP9tmpi_req_Pi(ptr noundef %5, ptr noundef %.024.lcssa.i, ptr noundef null)
  %.not.us.not.i = icmp eq i32 %8, 0
  br i1 %.not.us.not.i, label %9, label %_ZL19tMPI_Test_multi_reqP11tmpi_threadiPP9tmpi_req_ii.exit

9:                                                ; preds = %.preheader.i
  tail call void @_Z26tMPI_Wait_process_incomingP11tmpi_thread(ptr noundef %5)
  br label %_ZL19tMPI_Test_multi_reqP11tmpi_threadiPP9tmpi_req_ii.exit

.lr.ph.i:                                         ; preds = %18, %.lr.ph.preheader.i
  %indvars.iv.i = phi i64 [ 0, %.lr.ph.preheader.i ], [ %indvars.iv.next.i, %18 ]
  %.02333.i = phi ptr [ null, %.lr.ph.preheader.i ], [ %.1.i, %18 ]
  %.02432.i = phi ptr [ null, %.lr.ph.preheader.i ], [ %.125.i, %18 ]
  %10 = getelementptr inbounds nuw ptr, ptr %1, i64 %indvars.iv.i
  %11 = load ptr, ptr %10, align 8, !tbaa !3
  %.not27.i = icmp eq ptr %11, null
  br i1 %.not27.i, label %18, label %12

12:                                               ; preds = %.lr.ph.i
  %.not28.i = icmp eq ptr %.02432.i, null
  %spec.select.i = select i1 %.not28.i, ptr %11, ptr %.02432.i
  %.not29.i = icmp eq ptr %.02333.i, null
  %13 = getelementptr inbounds nuw i8, ptr %11, i64 56
  br i1 %.not29.i, label %14, label %15

14:                                               ; preds = %12
  tail call void @llvm.memset.p0.i64(ptr noundef nonnull align 8 dereferenceable(16) %13, i8 0, i64 16, i1 false)
  br label %18

15:                                               ; preds = %12
  store ptr null, ptr %13, align 8, !tbaa !8
  %16 = getelementptr inbounds nuw i8, ptr %11, i64 64
  store ptr %.02333.i, ptr %16, align 8, !tbaa !15
  %17 = getelementptr inbounds nuw i8, ptr %.02333.i, i64 56
  store ptr %11, ptr %17, align 8, !tbaa !8
  br label %18

18:                                               ; preds = %15, %14, %.lr.ph.i
  %.125.i = phi ptr [ %spec.select.i, %15 ], [ %spec.select.i, %14 ], [ %.02432.i, %.lr.ph.i ]
  %.1.i = phi ptr [ %11, %15 ], [ %11, %14 ], [ %.02333.i, %.lr.ph.i ]
  %indvars.iv.next.i = add nuw nsw i64 %indvars.iv.i, 1
  %exitcond.not.i = icmp eq i64 %indvars.iv.next.i, %wide.trip.count.i
  br i1 %exitcond.not.i, label %.preheader.i, label %.lr.ph.i, !llvm.loop !22

_ZL19tMPI_Test_multi_reqP11tmpi_threadiPP9tmpi_req_ii.exit: ; preds = %.preheader.i, %9
  br i1 %7, label %.lr.ph.preheader, label %.loopexit

.lr.ph.preheader:                                 ; preds = %_ZL19tMPI_Test_multi_reqP11tmpi_threadiPP9tmpi_req_ii.exit
  %wide.trip.count = zext nneg i32 %0 to i64
  br label %.lr.ph

.lr.ph:                                           ; preds = %.lr.ph.preheader, %31
  %indvars.iv = phi i64 [ 0, %.lr.ph.preheader ], [ %indvars.iv.next, %31 ]
  %19 = getelementptr inbounds nuw ptr, ptr %1, i64 %indvars.iv
  %20 = load ptr, ptr %19, align 8, !tbaa !3
  %.not = icmp eq ptr %20, null
  br i1 %.not, label %31, label %21

21:                                               ; preds = %.lr.ph
  %22 = load i32, ptr %20, align 8, !tbaa !21
  %.not27 = icmp eq i32 %22, 0
  br i1 %.not27, label %31, label %23

23:                                               ; preds = %21
  %24 = getelementptr inbounds nuw ptr, ptr %1, i64 %indvars.iv
  tail call void @_Z15tMPI_Set_statusP9tmpi_req_P12tmpi_status_(ptr noundef nonnull %20, ptr noundef %3)
  %.not28 = icmp eq ptr %2, null
  br i1 %.not28, label %27, label %25

25:                                               ; preds = %23
  %26 = trunc nuw nsw i64 %indvars.iv to i32
  store i32 %26, ptr %2, align 4, !tbaa !20
  br label %27

27:                                               ; preds = %25, %23
  %28 = load ptr, ptr %24, align 8, !tbaa !3
  %29 = getelementptr inbounds nuw i8, ptr %28, i64 36
  %30 = load i32, ptr %29, align 4, !tbaa !19
  %.not29 = icmp eq i32 %30, 0
  %spec.select = select i1 %.not29, i32 0, i32 24
  tail call void @_Z15tMPI_Return_reqP8req_listP9tmpi_req_(ptr noundef nonnull %6, ptr noundef %28)
  store ptr null, ptr %24, align 8, !tbaa !3
  br label %.loopexit

31:                                               ; preds = %.lr.ph, %21
  %indvars.iv.next = add nuw nsw i64 %indvars.iv, 1
  %exitcond.not = icmp eq i64 %indvars.iv.next, %wide.trip.count
  br i1 %exitcond.not, label %.loopexit, label %.lr.ph, !llvm.loop !25

.loopexit:                                        ; preds = %31, %_ZL19tMPI_Test_multi_reqP11tmpi_threadiPP9tmpi_req_ii.exit, %27
  %.024 = phi i32 [ %spec.select, %27 ], [ 0, %_ZL19tMPI_Test_multi_reqP11tmpi_threadiPP9tmpi_req_ii.exit ], [ 0, %31 ]
  ret i32 %.024
}